; Function Attrs: nounwind uwtable
define internal range(i32 0, 2) i32 @test_unknown_critical_crl(i32 noundef %0) #0 {
  %2 = alloca i64, align 8
  %3 = sext i32 %0 to i64
  %4 = getelementptr inbounds [2 x ptr], ptr @unknown_critical_crls, i64 0, i64 %3
  %5 = load ptr, ptr %4, align 8, !tbaa !11
  call void @llvm.lifetime.start.p0(i64 8, ptr nonnull %2) #3
  store i64 0, ptr %2, align 8, !tbaa !4
  %6 = call ptr @glue_strings(ptr noundef %5, ptr noundef nonnull %2) #3
  %7 = load i64, ptr %2, align 8, !tbaa !4
  %8 = trunc i64 %7 to i32
  %9 = call ptr @BIO_new_mem_buf(ptr noundef %6, i32 noundef %8) #3
  call void @llvm.lifetime.end.p0(i64 8, ptr nonnull %2) #3
  %10 = icmp eq ptr %9, null
  br i1 %10, label %11, label %12

11:                                               ; preds = %1
  call void @CRYPTO_free(ptr noundef %6, ptr noundef nonnull @.str, i32 noundef 215) #3
  br label %CRL_from_strings.exit

12:                                               ; preds = %1
  %13 = call ptr @PEM_read_bio_X509_CRL(ptr noundef nonnull %9, ptr noundef null, ptr noundef null, ptr noundef null) #3
  call void @CRYPTO_free(ptr noundef %6, ptr noundef nonnull @.str, i32 noundef 221) #3
  %14 = call i32 @BIO_free(ptr noundef nonnull %9) #3
  br label %CRL_from_strings.exit

CRL_from_strings.exit:                            ; preds = %11, %12
  %.0.i = phi ptr [ null, %11 ], [ %13, %12 ]
  %15 = call i32 @test_ptr(ptr noundef nonnull @.str, i32 noundef 372, ptr noundef nonnull @.str.109, ptr noundef %.0.i) #3
  %.not = icmp eq i32 %15, 0
  br i1 %.not, label %26, label %16

16:                                               ; preds = %CRL_from_strings.exit
  %17 = load ptr, ptr @test_leaf, align 8, !tbaa !8
  %18 = load ptr, ptr @test_root, align 8, !tbaa !8
  %19 = call ptr @OPENSSL_sk_new_null() #3
  %20 = call i32 @OPENSSL_sk_push(ptr noundef %19, ptr noundef %.0.i) #3
  %21 = call i32 @X509_CRL_up_ref(ptr noundef %.0.i) #3
  %22 = call fastcc i32 @verify(ptr noundef %17, ptr noundef %18, ptr noundef %19)
  %23 = call i32 @test_int_eq(ptr noundef nonnull @.str, i32 noundef 376, ptr noundef nonnull @.str.110, ptr noundef nonnull @.str.111, i32 noundef %22, i32 noundef 36) #3
  %24 = icmp ne i32 %23, 0
  %25 = zext i1 %24 to i32
  br label %26

26:                                               ; preds = %16, %CRL_from_strings.exit
  %27 = phi i32 [ 0, %CRL_from_strings.exit ], [ %25, %16 ]
  call void @X509_CRL_free(ptr noundef %.0.i) #3
  ret i32 %27
}